target datalayout = "e-m:e-p270:32:32-p271:32:32-p272:64:64-i64:64-i128:128-f80:128-n8:16:32:64-S128"
target triple = "x86_64-unknown-linux-gnu"

%"class.std::basic_string_view" = type { i64, ptr }
%"class.std::__cxx11::basic_string" = type { %"struct.std::__cxx11::basic_string<char>::_Alloc_hider", i64, %union.anon }
%"struct.std::__cxx11::basic_string<char>::_Alloc_hider" = type { ptr }
%union.anon = type { i64, [8 x i8] }
%class.anon = type { ptr, ptr }
%"class.absl::AlphaNum" = type { %"class.std::basic_string_view", [32 x i8] }

@.str.1 = private unnamed_addr constant [13 x i8] c"kNoThrowCopy\00", align 1
@.str.2 = private unnamed_addr constant [13 x i8] c"kNoThrowMove\00", align 1
@.str.3 = private unnamed_addr constant [12 x i8] c"kNoThrowNew\00", align 1
@.str.6 = private unnamed_addr constant [4 x i8] c" | \00", align 1

; Function Attrs: mustprogress nounwind uwtable
define linkonce_odr dso_local void @_ZN4absl8AlphaNumC2ESt17basic_string_viewIcSt11char_traitsIcEE(ptr noundef nonnull align 8 dereferenceable(48) %this, i64 %pc.coerce0, ptr %pc.coerce1) unnamed_addr #5 comdat align 2 {
entry:
  %pc = alloca %"class.std::basic_string_view", align 8
  %this.addr = alloca ptr, align 8
  %0 = getelementptr inbounds { i64, ptr }, ptr %pc, i32 0, i32 0
  store i64 %pc.coerce0, ptr %0, align 8
  %1 = getelementptr inbounds { i64, ptr }, ptr %pc, i32 0, i32 1
  store ptr %pc.coerce1, ptr %1, align 8
  store ptr %this, ptr %this.addr, align 8
  %this1 = load ptr, ptr %this.addr, align 8
  %piece_ = getelementptr inbounds %"class.absl::AlphaNum", ptr %this1, i32 0, i32 0
  call void @llvm.memcpy.p0.p0.i64(ptr align 8 %piece_, ptr align 8 %pc, i64 16, i1 false)
  ret void
}

; Function Attrs: noreturn nounwind uwtable
define linkonce_odr hidden void @__clang_call_terminate(ptr noundef %0) #7 comdat {
  %2 = call ptr @__cxa_begin_catch(ptr %0) #3
  call void @_ZSt9terminatev() #13
  unreachable
}

; Function Attrs: mustprogress nounwind uwtable
define linkonce_odr dso_local noundef i64 @_ZNSt11char_traitsIcE6lengthEPKc(ptr noundef %__s) #5 comdat align 2 {
entry:
  %__s.addr = alloca ptr, align 8
  store ptr %__s, ptr %__s.addr, align 8
  %0 = load ptr, ptr %__s.addr, align 8
  %call = call i64 @strlen(ptr noundef %0) #3
  ret i64 %call
}

; Function Attrs: mustprogress uwtable
define internal void @"_ZZN7testing19exceptions_internal13GetSpecStringB5cxx11ENS_8TypeSpecEENK3$_0clESt17basic_string_viewIcSt11char_traitsIcEE"(ptr noundef nonnull align 8 dereferenceable(16) %this, i64 %s.coerce0, ptr %s.coerce1) #4 align 2 {
entry:
  %s = alloca %"class.std::basic_string_view", align 8
  %this.addr = alloca ptr, align 8
  %ref.tmp = alloca %"class.absl::AlphaNum", align 8
  %agg.tmp = alloca %"class.std::basic_string_view", align 8
  %ref.tmp2 = alloca %"class.absl::AlphaNum", align 8
  %agg.tmp3 = alloca %"class.std::basic_string_view", align 8
  %ref.tmp4 = alloca %"class.std::basic_string_view", align 8
  %0 = getelementptr inbounds { i64, ptr }, ptr %s, i32 0, i32 0
  store i64 %s.coerce0, ptr %0, align 8
  %1 = getelementptr inbounds { i64, ptr }, ptr %s, i32 0, i32 1
  store ptr %s.coerce1, ptr %1, align 8
  store ptr %this, ptr %this.addr, align 8
  %this1 = load ptr, ptr %this.addr, align 8
  %2 = getelementptr inbounds %class.anon, ptr %this1, i32 0, i32 0
  %3 = load ptr, ptr %2, align 8
  %4 = getelementptr inbounds %class.anon, ptr %this1, i32 0, i32 1
  %5 = load ptr, ptr %4, align 8
  call void @llvm.memcpy.p0.p0.i64(ptr align 8 %agg.tmp, ptr align 8 %5, i64 16, i1 false)
  %6 = getelementptr inbounds { i64, ptr }, ptr %agg.tmp, i32 0, i32 0
  %7 = load i64, ptr %6, align 8
  %8 = getelementptr inbounds { i64, ptr }, ptr %agg.tmp, i32 0, i32 1
  %9 = load ptr, ptr %8, align 8
  call void @_ZN4absl8AlphaNumC2ESt17basic_string_viewIcSt11char_traitsIcEE(ptr noundef nonnull align 8 dereferenceable(48) %ref.tmp, i64 %7, ptr %9)
  call void @llvm.memcpy.p0.p0.i64(ptr align 8 %agg.tmp3, ptr align 8 %s, i64 16, i1 false)
  %10 = getelementptr inbounds { i64, ptr }, ptr %agg.tmp3, i32 0, i32 0
  %11 = load i64, ptr %10, align 8
  %12 = getelementptr inbounds { i64, ptr }, ptr %agg.tmp3, i32 0, i32 1
  %13 = load ptr, ptr %12, align 8
  call void @_ZN4absl8AlphaNumC2ESt17basic_string_viewIcSt11char_traitsIcEE(ptr noundef nonnull align 8 dereferenceable(48) %ref.tmp2, i64 %11, ptr %13)
  call void @_ZN4absl9StrAppendEPNSt7__cxx1112basic_stringIcSt11char_traitsIcESaIcEEERKNS_8AlphaNumES9_(ptr noundef %3, ptr noundef nonnull align 8 dereferenceable(48) %ref.tmp, ptr noundef nonnull align 8 dereferenceable(48) %ref.tmp2)
  call void @_ZNSt17basic_string_viewIcSt11char_traitsIcEEC2EPKc(ptr noundef nonnull align 8 dereferenceable(16) %ref.tmp4, ptr noundef @.str.6) #3
  %14 = getelementptr inbounds %class.anon, ptr %this1, i32 0, i32 1
  %15 = load ptr, ptr %14, align 8
  call void @llvm.memcpy.p0.p0.i64(ptr align 8 %15, ptr align 8 %ref.tmp4, i64 16, i1 false)
  ret void
}

; Function Attrs: mustprogress nounwind uwtable
define linkonce_odr dso_local void @_ZNSt17basic_string_viewIcSt11char_traitsIcEEC2EPKc(ptr noundef nonnull align 8 dereferenceable(16) %this, ptr noundef nonnull %__str) unnamed_addr #5 comdat align 2 personality ptr @__gxx_personality_v0 {
entry:
  %this.addr = alloca ptr, align 8
  %__str.addr = alloca ptr, align 8
  store ptr %this, ptr %this.addr, align 8
  store ptr %__str, ptr %__str.addr, align 8
  %this1 = load ptr, ptr %this.addr, align 8
  %_M_len = getelementptr inbounds %"class.std::basic_string_view", ptr %this1, i32 0, i32 0
  %0 = load ptr, ptr %__str.addr, align 8
  %call = invoke noundef i64 @_ZNSt11char_traitsIcE6lengthEPKc(ptr noundef %0)
          to label %invoke.cont unwind label %terminate.lpad

invoke.cont:                                      ; preds = %entry
  store i64 %call, ptr %_M_len, align 8
  %_M_str = getelementptr inbounds %"class.std::basic_string_view", ptr %this1, i32 0, i32 1
  %1 = load ptr, ptr %__str.addr, align 8
  store ptr %1, ptr %_M_str, align 8
  ret void

terminate.lpad:                                   ; preds = %entry
  %2 = landingpad { ptr, i32 }
          catch ptr null
  %3 = extractvalue { ptr, i32 } %2, 0
  call void @__clang_call_terminate(ptr %3) #13
  unreachable
}

; Function Attrs: mustprogress nounwind uwtable
define linkonce_odr dso_local noundef i32 @_ZN7testinganENS_8TypeSpecES0_(i32 noundef %a, i32 noundef %b) #5 comdat {
entry:
  %a.addr = alloca i32, align 4
  %b.addr = alloca i32, align 4
  store i32 %a, ptr %a.addr, align 4
  store i32 %b, ptr %b.addr, align 4
  %0 = load i32, ptr %a.addr, align 4
  %1 = load i32, ptr %b.addr, align 4
  %and = and i32 %0, %1
  ret i32 %and
}

; Function Attrs: mustprogress nounwind uwtable
define linkonce_odr dso_local void @_ZNSt17basic_string_viewIcSt11char_traitsIcEEC2Ev(ptr noundef nonnull align 8 dereferenceable(16) %this) unnamed_addr #5 comdat align 2 {
entry:
  %this.addr = alloca ptr, align 8
  store ptr %this, ptr %this.addr, align 8
  %this1 = load ptr, ptr %this.addr, align 8
  %_M_len = getelementptr inbounds %"class.std::basic_string_view", ptr %this1, i32 0, i32 0
  store i64 0, ptr %_M_len, align 8
  %_M_str = getelementptr inbounds %"class.std::basic_string_view", ptr %this1, i32 0, i32 1
  store ptr null, ptr %_M_str, align 8
  ret void
}

; Function Attrs: mustprogress uwtable
define dso_local void @_ZN7testing19exceptions_internal13GetSpecStringB5cxx11ENS_8TypeSpecE(ptr noalias sret(%"class.std::__cxx11::basic_string") align 8 %agg.result, i32 noundef %spec) #4 personality ptr @__gxx_personality_v0 {
entry:
  %result.ptr = alloca ptr, align 8
  %spec.addr = alloca i32, align 4
  %nrvo = alloca i1, align 1
  %sep = alloca %"class.std::basic_string_view", align 8
  %append = alloca %class.anon, align 8
  %exn.slot = alloca ptr, align 8
  %ehselector.slot = alloca i32, align 4
  %agg.tmp = alloca %"class.std::basic_string_view", align 8
  %agg.tmp6 = alloca %"class.std::basic_string_view", align 8
  %agg.tmp13 = alloca %"class.std::basic_string_view", align 8
  store ptr %agg.result, ptr %result.ptr, align 8
  store i32 %spec, ptr %spec.addr, align 4
  store i1 false, ptr %nrvo, align 1
  call void @_ZNSt7__cxx1112basic_stringIcSt11char_traitsIcESaIcEEC1Ev(ptr noundef nonnull align 8 dereferenceable(32) %agg.result) #3
  call void @_ZNSt17basic_string_viewIcSt11char_traitsIcEEC2Ev(ptr noundef nonnull align 8 dereferenceable(16) %sep) #3
  %0 = getelementptr inbounds %class.anon, ptr %append, i32 0, i32 0
  store ptr %agg.result, ptr %0, align 8
  %1 = getelementptr inbounds %class.anon, ptr %append, i32 0, i32 1
  store ptr %sep, ptr %1, align 8
  %2 = load i32, ptr %spec.addr, align 4
  %call = invoke noundef i32 @_ZN7testinganENS_8TypeSpecES0_(i32 noundef 1, i32 noundef %2)
          to label %invoke.cont unwind label %lpad

invoke.cont:                                      ; preds = %entry
  %tobool = icmp ne i32 %call, 0
  br i1 %tobool, label %if.then, label %if.end

if.then:                                          ; preds = %invoke.cont
  call void @_ZNSt17basic_string_viewIcSt11char_traitsIcEEC2EPKc(ptr noundef nonnull align 8 dereferenceable(16) %agg.tmp, ptr noundef @.str.1) #3
  %3 = getelementptr inbounds { i64, ptr }, ptr %agg.tmp, i32 0, i32 0
  %4 = load i64, ptr %3, align 8
  %5 = getelementptr inbounds { i64, ptr }, ptr %agg.tmp, i32 0, i32 1
  %6 = load ptr, ptr %5, align 8
  invoke void @"_ZZN7testing19exceptions_internal13GetSpecStringB5cxx11ENS_8TypeSpecEENK3$_0clESt17basic_string_viewIcSt11char_traitsIcEE"(ptr noundef nonnull align 8 dereferenceable(16) %append, i64 %4, ptr %6)
          to label %invoke.cont1 unwind label %lpad

invoke.cont1:                                     ; preds = %if.then
  br label %if.end

lpad:                                             ; preds = %if.then12, %if.end8, %if.then5, %if.end, %if.then, %entry
  %7 = landingpad { ptr, i32 }
          cleanup
  %8 = extractvalue { ptr, i32 } %7, 0
  store ptr %8, ptr %exn.slot, align 8
  %9 = extractvalue { ptr, i32 } %7, 1
  store i32 %9, ptr %ehselector.slot, align 4
  call void @_ZNSt7__cxx1112basic_stringIcSt11char_traitsIcESaIcEED1Ev(ptr noundef nonnull align 8 dereferenceable(32) %agg.result) #3
  br label %eh.resume

if.end:                                           ; preds = %invoke.cont1, %invoke.cont
  %10 = load i32, ptr %spec.addr, align 4
  %call3 = invoke noundef i32 @_ZN7testinganENS_8TypeSpecES0_(i32 noundef 2, i32 noundef %10)
          to label %invoke.cont2 unwind label %lpad

invoke.cont2:                                     ; preds = %if.end
  %tobool4 = icmp ne i32 %call3, 0
  br i1 %tobool4, label %if.then5, label %if.end8

if.then5:                                         ; preds = %invoke.cont2
  call void @_ZNSt17basic_string_viewIcSt11char_traitsIcEEC2EPKc(ptr noundef nonnull align 8 dereferenceable(16) %agg.tmp6, ptr noundef @.str.2) #3
  %11 = getelementptr inbounds { i64, ptr }, ptr %agg.tmp6, i32 0, i32 0
  %12 = load i64, ptr %11, align 8
  %13 = getelementptr inbounds { i64, ptr }, ptr %agg.tmp6, i32 0, i32 1
  %14 = load ptr, ptr %13, align 8
  invoke void @"_ZZN7testing19exceptions_internal13GetSpecStringB5cxx11ENS_8TypeSpecEENK3$_0clESt17basic_string_viewIcSt11char_traitsIcEE"(ptr noundef nonnull align 8 dereferenceable(16) %append, i64 %12, ptr %14)
          to label %invoke.cont7 unwind label %lpad

invoke.cont7:                                     ; preds = %if.then5
  br label %if.end8

if.end8:                                          ; preds = %invoke.cont7, %invoke.cont2
  %15 = load i32, ptr %spec.addr, align 4
  %call10 = invoke noundef i32 @_ZN7testinganENS_8TypeSpecES0_(i32 noundef 4, i32 noundef %15)
          to label %invoke.cont9 unwind label %lpad

invoke.cont9:                                     ; preds = %if.end8
  %tobool11 = icmp ne i32 %call10, 0
  br i1 %tobool11, label %if.then12, label %if.end15

if.then12:                                        ; preds = %invoke.cont9
  call void @_ZNSt17basic_string_viewIcSt11char_traitsIcEEC2EPKc(ptr noundef nonnull align 8 dereferenceable(16) %agg.tmp13, ptr noundef @.str.3) #3
  %16 = getelementptr inbounds { i64, ptr }, ptr %agg.tmp13, i32 0, i32 0
  %17 = load i64, ptr %16, align 8
  %18 = getelementptr inbounds { i64, ptr }, ptr %agg.tmp13, i32 0, i32 1
  %19 = load ptr, ptr %18, align 8
  invoke void @"_ZZN7testing19exceptions_internal13GetSpecStringB5cxx11ENS_8TypeSpecEENK3$_0clESt17basic_string_viewIcSt11char_traitsIcEE"(ptr noundef nonnull align 8 dereferenceable(16) %append, i64 %17, ptr %19)
          to label %invoke.cont14 unwind label %lpad

invoke.cont14:                                    ; preds = %if.then12
  br label %if.end15

if.end15:                                         ; preds = %invoke.cont14, %invoke.cont9
  store i1 true, ptr %nrvo, align 1
  %nrvo.val = load i1, ptr %nrvo, align 1
  br i1 %nrvo.val, label %nrvo.skipdtor, label %nrvo.unused

nrvo.unused:                                      ; preds = %if.end15
  call void @_ZNSt7__cxx1112basic_stringIcSt11char_traitsIcESaIcEED1Ev(ptr noundef nonnull align 8 dereferenceable(32) %agg.result) #3
  br label %nrvo.skipdtor

nrvo.skipdtor:                                    ; preds = %nrvo.unused, %if.end15
  ret void

eh.resume:                                        ; preds = %lpad
  %exn = load ptr, ptr %exn.slot, align 8
  %sel = load i32, ptr %ehselector.slot, align 4
  %lpad.val = insertvalue { ptr, i32 } poison, ptr %exn, 0
  %lpad.val16 = insertvalue { ptr, i32 } %lpad.val, i32 %sel, 1
  resume { ptr, i32 } %lpad.val16
}